target datalayout = "e-m:e-p270:32:32-p271:32:32-p272:64:64-i64:64-i128:128-f80:128-n8:16:32:64-S128"
target triple = "x86_64-pc-linux-gnu"

@het_job_limit = internal global i32 0, align 4
@my_job_id = internal global i32 0, align 4
@.str.60 = private unnamed_addr constant [26 x i8] c"Pending job allocation %u\00", align 1
@_cli_filter_post_submit_run = internal global i8 0, align 1

; Function Attrs: nounwind uwtable
define internal void @_salloc_cli_filter_post_submit(i32 noundef %0, i32 noundef %1) #0 {
  %3 = alloca i32, align 4
  %4 = alloca i32, align 4
  %5 = alloca i32, align 4
  %6 = alloca i32, align 4
  store i32 %0, ptr %3, align 4
  store i32 %1, ptr %4, align 4
  call void @llvm.lifetime.start.p0(i64 4, ptr %5) #9
  store i32 0, ptr %5, align 4
  %7 = load i8, ptr @_cli_filter_post_submit_run, align 1, !range !8, !noundef !9
  %8 = trunc i8 %7 to i1
  br i1 %8, label %9, label %10

9:                                                ; preds = %2
  store i32 1, ptr %6, align 4
  br label %23

10:                                               ; preds = %2
  store i32 0, ptr %5, align 4
  br label %11

11:                                               ; preds = %19, %10
  %12 = load i32, ptr %5, align 4
  %13 = load i32, ptr @het_job_limit, align 4
  %14 = icmp slt i32 %12, %13
  br i1 %14, label %15, label %22

15:                                               ; preds = %11
  %16 = load i32, ptr %5, align 4
  %17 = load i32, ptr %3, align 4
  %18 = load i32, ptr %4, align 4
  call void @cli_filter_g_post_submit(i32 noundef %16, i32 noundef %17, i32 noundef %18)
  br label %19

19:                                               ; preds = %15
  %20 = load i32, ptr %5, align 4
  %21 = add nsw i32 %20, 1
  store i32 %21, ptr %5, align 4
  br label %11, !llvm.loop !20

22:                                               ; preds = %11
  store i8 1, ptr @_cli_filter_post_submit_run, align 1
  store i32 0, ptr %6, align 4
  br label %23

23:                                               ; preds = %22, %9
  call void @llvm.lifetime.end.p0(i64 4, ptr %5) #9
  %24 = load i32, ptr %6, align 4
  switch i32 %24, label %26 [
    i32 0, label %25
    i32 1, label %25
  ]

25:                                               ; preds = %23, %23
  ret void

26:                                               ; preds = %23
  unreachable
}

; Function Attrs: nounwind uwtable
define internal void @_pending_callback(i32 noundef %0) #0 {
  %2 = alloca i32, align 4
  store i32 %0, ptr %2, align 4
  br label %3

3:                                                ; preds = %1
  br label %4

4:                                                ; preds = %3
  %5 = call i32 @get_log_level()
  %6 = icmp sge i32 %5, 3
  br i1 %6, label %7, label %9

7:                                                ; preds = %4
  %8 = load i32, ptr %2, align 4
  call void (i32, ptr, ...) @log_var(i32 noundef 3, ptr noundef @.str.60, i32 noundef %8)
  br label %9

9:                                                ; preds = %7, %4
  br label %10

10:                                               ; preds = %9
  br label %11

11:                                               ; preds = %10
  %12 = load i32, ptr %2, align 4
  store i32 %12, ptr @my_job_id, align 4
  %13 = load i32, ptr @my_job_id, align 4
  call void @_salloc_cli_filter_post_submit(i32 noundef %13, i32 noundef -2)
  ret void
}