; Function Attrs: nounwind uwtable
define internal void @_pending_callback(i32 noundef %0) #0 {
  %2 = tail call i32 @get_log_level() #13
  %3 = icmp sgt i32 %2, 2
  br i1 %3, label %4, label %5

4:                                                ; preds = %1
  tail call void (i32, ptr, ...) @log_var(i32 noundef 3, ptr noundef nonnull @.str.60, i32 noundef %0) #13
  br label %5

5:                                                ; preds = %4, %1
  store i32 %0, ptr @my_job_id, align 4
  %.b5.i = load i1, ptr @_cli_filter_post_submit_run, align 1
  br i1 %.b5.i, label %_salloc_cli_filter_post_submit.exit, label %.preheader.i

.preheader.i:                                     ; preds = %5
  %6 = load i32, ptr @het_job_limit, align 4
  %7 = icmp sgt i32 %6, 0
  br i1 %7, label %.lr.ph.i, label %._crit_edge.i

.lr.ph.i:                                         ; preds = %.preheader.i, %.lr.ph.i
  %.06.i = phi i32 [ %8, %.lr.ph.i ], [ 0, %.preheader.i ]
  tail call void @cli_filter_g_post_submit(i32 noundef %.06.i, i32 noundef %0, i32 noundef -2) #13
  %8 = add nuw nsw i32 %.06.i, 1
  %9 = load i32, ptr @het_job_limit, align 4
  %10 = icmp slt i32 %8, %9
  br i1 %10, label %.lr.ph.i, label %._crit_edge.i, !llvm.loop !18

._crit_edge.i:                                    ; preds = %.lr.ph.i, %.preheader.i
  store i1 true, ptr @_cli_filter_post_submit_run, align 1
  br label %_salloc_cli_filter_post_submit.exit

_salloc_cli_filter_post_submit.exit:              ; preds = %5, %._crit_edge.i
  ret void
}